; ModuleID = '49/1087.c'
source_filename = "49/1087.c"
target datalayout = "e-m:e-p270:32:32-p271:32:32-p272:64:64-i64:64-f80:128-n8:16:32:64-S128"
target triple = "x86_64-pc-linux-gnu"

@main.c = internal global [501 x i8] zeroinitializer, align 16
@main.c1 = internal global [501 x i8] zeroinitializer, align 16
@main.c2 = internal global [501 x i8] zeroinitializer, align 16
@.str = private unnamed_addr constant [4 x i8] c"%s\0A\00", align 1

; Function Attrs: noinline nounwind uwtable
define dso_local i32 @main() #0 {
  %1 = alloca i32, align 4
  %2 = alloca i32, align 4
  %3 = alloca i32, align 4
  %4 = alloca i32, align 4
  %5 = alloca i32, align 4
  %6 = alloca i32, align 4
  %7 = alloca i32, align 4
  %8 = alloca i32, align 4
  store i32 0, i32* %1, align 4
  %9 = call i32 (i8*, ...) bitcast (i32 (...)* @gets to i32 (i8*, ...)*)(i8* getelementptr inbounds ([501 x i8], [501 x i8]* @main.c, i64 0, i64 0))
  store i32 0, i32* %3, align 4
  br label %10

10:                                               ; preds = %20, %0
  %11 = load i32, i32* %3, align 4
  %12 = sext i32 %11 to i64
  %13 = getelementptr inbounds [501 x i8], [501 x i8]* @main.c, i64 0, i64 %12
  %14 = load i8, i8* %13, align 1
  %15 = sext i8 %14 to i32
  %16 = icmp eq i32 %15, 0
  br i1 %16, label %17, label %19

17:                                               ; preds = %10
  %18 = load i32, i32* %3, align 4
  store i32 %18, i32* %2, align 4
  br label %23

19:                                               ; preds = %10
  br label %20

20:                                               ; preds = %19
  %21 = load i32, i32* %3, align 4
  %22 = add nsw i32 %21, 1
  store i32 %22, i32* %3, align 4
  br label %10

23:                                               ; preds = %17
  store i32 2, i32* %3, align 4
  br label %24

24:                                               ; preds = %113, %23
  %25 = load i32, i32* %3, align 4
  %26 = load i32, i32* %2, align 4
  %27 = icmp sle i32 %25, %26
  br i1 %27, label %28, label %116

28:                                               ; preds = %24
  store i32 0, i32* %4, align 4
  br label %29

29:                                               ; preds = %109, %28
  %30 = load i32, i32* %4, align 4
  %31 = load i32, i32* %2, align 4
  %32 = load i32, i32* %3, align 4
  %33 = sub nsw i32 %31, %32
  %34 = icmp sle i32 %30, %33
  br i1 %34, label %35, label %112

35:                                               ; preds = %29
  store i32 0, i32* %5, align 4
  br label %36

36:                                               ; preds = %62, %35
  %37 = load i32, i32* %5, align 4
  %38 = load i32, i32* %3, align 4
  %39 = icmp slt i32 %37, %38
  br i1 %39, label %40, label %65

40:                                               ; preds = %36
  %41 = load i32, i32* %4, align 4
  %42 = load i32, i32* %5, align 4
  %43 = add nsw i32 %41, %42
  %44 = sext i32 %43 to i64
  %45 = getelementptr inbounds [501 x i8], [501 x i8]* @main.c, i64 0, i64 %44
  %46 = load i8, i8* %45, align 1
  %47 = load i32, i32* %5, align 4
  %48 = sext i32 %47 to i64
  %49 = getelementptr inbounds [501 x i8], [501 x i8]* @main.c1, i64 0, i64 %48
  store i8 %46, i8* %49, align 1
  %50 = load i32, i32* %4, align 4
  %51 = load i32, i32* %3, align 4
  %52 = add nsw i32 %50, %51
  %53 = load i32, i32* %5, align 4
  %54 = sub nsw i32 %52, %53
  %55 = sub nsw i32 %54, 1
  %56 = sext i32 %55 to i64
  %57 = getelementptr inbounds [501 x i8], [501 x i8]* @main.c, i64 0, i64 %56
  %58 = load i8, i8* %57, align 1
  %59 = load i32, i32* %5, align 4
  %60 = sext i32 %59 to i64
  %61 = getelementptr inbounds [501 x i8], [501 x i8]* @main.c2, i64 0, i64 %60
  store i8 %58, i8* %61, align 1
  br label %62

62:                                               ; preds = %40
  %63 = load i32, i32* %5, align 4
  %64 = add nsw i32 %63, 1
  store i32 %64, i32* %5, align 4
  br label %36

65:                                               ; preds = %36
  br label %66

66:                                               ; preds = %76, %65
  %67 = load i32, i32* %5, align 4
  %68 = icmp slt i32 %67, 501
  br i1 %68, label %69, label %79

69:                                               ; preds = %66
  %70 = load i32, i32* %5, align 4
  %71 = sext i32 %70 to i64
  %72 = getelementptr inbounds [501 x i8], [501 x i8]* @main.c1, i64 0, i64 %71
  store i8 0, i8* %72, align 1
  %73 = load i32, i32* %5, align 4
  %74 = sext i32 %73 to i64
  %75 = getelementptr inbounds [501 x i8], [501 x i8]* @main.c2, i64 0, i64 %74
  store i8 0, i8* %75, align 1
  br label %76

76:                                               ; preds = %69
  %77 = load i32, i32* %5, align 4
  %78 = add nsw i32 %77, 1
  store i32 %78, i32* %5, align 4
  br label %66

79:                                               ; preds = %66
  store i32 0, i32* %8, align 4
  store i32 0, i32* %7, align 4
  br label %80

80:                                               ; preds = %100, %79
  %81 = load i32, i32* %8, align 4
  %82 = icmp eq i32 %81, 0
  br i1 %82, label %83, label %86

83:                                               ; preds = %80
  %84 = load i32, i32* %7, align 4
  %85 = icmp slt i32 %84, 501
  br label %86

86:                                               ; preds = %83, %80
  %87 = phi i1 [ false, %80 ], [ %85, %83 ]
  br i1 %87, label %88, label %103

88:                                               ; preds = %86
  %89 = load i32, i32* %7, align 4
  %90 = sext i32 %89 to i64
  %91 = getelementptr inbounds [501 x i8], [501 x i8]* @main.c1, i64 0, i64 %90
  %92 = load i8, i8* %91, align 1
  %93 = sext i8 %92 to i32
  %94 = load i32, i32* %7, align 4
  %95 = sext i32 %94 to i64
  %96 = getelementptr inbounds [501 x i8], [501 x i8]* @main.c2, i64 0, i64 %95
  %97 = load i8, i8* %96, align 1
  %98 = sext i8 %97 to i32
  %99 = sub nsw i32 %93, %98
  store i32 %99, i32* %8, align 4
  br label %100

100:                                              ; preds = %88
  %101 = load i32, i32* %7, align 4
  %102 = add nsw i32 %101, 1
  store i32 %102, i32* %7, align 4
  br label %80

103:                                              ; preds = %86
  %104 = load i32, i32* %8, align 4
  %105 = icmp eq i32 %104, 0
  br i1 %105, label %106, label %108

106:                                              ; preds = %103
  %107 = call i32 (i8*, ...) @printf(i8* getelementptr inbounds ([4 x i8], [4 x i8]* @.str, i64 0, i64 0), i8* getelementptr inbounds ([501 x i8], [501 x i8]* @main.c1, i64 0, i64 0))
  br label %108

108:                                              ; preds = %106, %103
  br label %109

109:                                              ; preds = %108
  %110 = load i32, i32* %4, align 4
  %111 = add nsw i32 %110, 1
  store i32 %111, i32* %4, align 4
  br label %29

112:                                              ; preds = %29
  br label %113

113:                                              ; preds = %112
  %114 = load i32, i32* %3, align 4
  %115 = add nsw i32 %114, 1
  store i32 %115, i32* %3, align 4
  br label %24

116:                                              ; preds = %24
  %117 = load i32, i32* %1, align 4
  ret i32 %117
}

declare dso_local i32 @gets(...) #1

declare dso_local i32 @printf(i8*, ...) #1


!llvm.module.flags = !{!0}
!llvm.ident = !{!1}

!0 = !{i32 1, !"wchar_size", i32 4}
!1 = !{!"clang version 10.0.0-4ubuntu1 "}
